target datalayout = "e-m:e-p270:32:32-p271:32:32-p272:64:64-i64:64-i128:128-f80:128-n8:16:32:64-S128"
target triple = "x86_64-pc-linux-gnu"

%struct.redisServer = type { i32, i64, ptr, ptr, ptr, i32, i32, i32, i32, i32, ptr, ptr, ptr, ptr, ptr, i32, i32, i32, i32, i64, i32, i32, i32, i32, ptr, i32, i32, [41 x i8], i32, i64, i32, i32, i32, ptr, ptr, i32, i32, i64, ptr, ptr, ptr, ptr, [2 x i32], i32, i32, i32, i32, i32, i32, [16 x ptr], i32, ptr, ptr, i32, [8 x %struct.connListener], i32, %struct.connListener, ptr, ptr, ptr, ptr, ptr, ptr, ptr, ptr, ptr, ptr, i32, ptr, i32, ptr, [3 x %struct.pause_event], [256 x i8], ptr, i64, i32, i32, [128 x i32], i32, i32, i64, i32, i32, i32, i32, i32, i64, i64, i64, i64, i64, i64, i64, i64, i64, i64, double, i64, i64, i64, i64, i64, i64, i64, i64, i64, i64, i64, i64, i64, i64, i64, i64, i64, i64, i64, i64, i64, double, i64, i64, i64, i64, i64, ptr, i64, i64, i64, %struct.malloc_stats, i64, i64, i64, i64, i64, i64, i64, i64, i64, i64, i64, i64, double, [4 x i64], i64, i64, i64, i64, [128 x i64], [128 x i64], i64, i64, [7 x %struct.anon], i64, i64, i64, i64, i64, i64, [4 x %struct.durationStats], i32, i32, i32, i32, i32, i32, i32, i32, i32, i32, i32, i32, i64, i32, i32, i32, i32, i64, i64, i32, i32, i32, i32, i32, ptr, [3 x %struct.clientBufferLimitsConfig], i32, i32, i32, ptr, i32, i32, i32, i32, i32, i32, ptr, ptr, i32, i32, i64, i64, i64, i64, i64, i32, i32, ptr, i32, i32, i64, i64, i64, i64, i64, i32, i32, i64, i32, i32, i32, i32, i32, i32, i32, i32, ptr, i32, i64, i64, i64, i64, i32, ptr, i32, ptr, i32, i32, i32, i64, i64, i64, i64, i32, i32, i32, i32, i32, i32, ptr, i32, i32, ptr, i32, i32, i32, [2 x i32], i32, %struct.redisOpArray, i32, ptr, i32, ptr, i32, i32, i32, i32, i32, i32, i32, [41 x i8], [41 x i8], i64, i64, i64, i64, i32, i32, ptr, i64, i64, %struct.replDataBuf, i64, i64, i32, i32, i32, i32, i32, i32, i32, i32, i32, i64, ptr, i64, ptr, ptr, ptr, i32, i32, ptr, ptr, i32, i32, i32, i64, i64, i64, i64, ptr, ptr, i32, ptr, i64, i32, i32, i32, i64, i32, i32, i32, i32, ptr, i32, i32, [41 x i8], i64, i32, ptr, i32, i32, i64, i64, i32, i32, i32, i32, i32, i64, [3 x i32], i32, i32, i32, [10 x i32], ptr, ptr, i32, i64, ptr, ptr, i32, i32, i32, i32, i64, i64, i64, i64, i64, i64, i64, i64, i64, i64, i32, i32, i64, i64, i32, i64, i64, i64, i64, i64, ptr, ptr, i32, ptr, i32, i32, i32, i32, i64, i64, ptr, ptr, i32, i32, i32, i32, i32, ptr, ptr, ptr, i32, i32, i32, i32, i32, i32, i32, i64, i32, i32, i64, i32, i32, i32, i32, i32, i32, i32, i64, ptr, ptr, i64, ptr, i32, %struct.aclInfo, i32, i64, i32, i32, i32, %struct.redisTLSContextConfig, ptr, ptr, ptr, ptr, ptr, i64, i32, ptr, i32, i32, i32, i64, i32, ptr }
%struct.connListener = type { [16 x i32], i32, ptr, i32, i32, ptr, ptr }
%struct.pause_event = type { i32, i64 }
%struct.malloc_stats = type { i64, i64, i64, i64, i64, i64, i64, i64, i64, i64, i64 }
%struct.anon = type { i64, i64, [16 x i64], i32 }
%struct.durationStats = type { i64, i64, i64 }
%struct.clientBufferLimitsConfig = type { i64, i64, i64 }
%struct.redisOpArray = type { ptr, i32, i32 }
%struct.replDataBuf = type { ptr, i64, i64, i64, i64 }
%struct.aclInfo = type { i64, i64, i64, i64 }
%struct.redisTLSContextConfig = type { ptr, ptr, ptr, ptr, ptr, ptr, ptr, ptr, ptr, ptr, ptr, ptr, i32, i32, i32, i32 }
%struct.ConnectionType = type { ptr, ptr, ptr, ptr, ptr, ptr, ptr, ptr, ptr, ptr, ptr, ptr, ptr, ptr, ptr, ptr, ptr, ptr, ptr, ptr, ptr, ptr, ptr, ptr, ptr, ptr, ptr, ptr, ptr, ptr }

@connTypes = internal global [8 x ptr] zeroinitializer, align 16
@server = external global %struct.redisServer, align 8
@.str.5 = private unnamed_addr constant [40 x i8] c"Missing implement of connection type %s\00", align 1

; Function Attrs: nounwind uwtable
define dso_local ptr @connectionByType(ptr noundef %0) #0 {
  %2 = alloca ptr, align 8
  %3 = alloca ptr, align 8
  %4 = alloca ptr, align 8
  %5 = alloca i32, align 4
  %6 = alloca i32, align 4
  store ptr %0, ptr %3, align 8, !tbaa !12
  call void @llvm.lifetime.start.p0(i64 8, ptr %4) #6
  call void @llvm.lifetime.start.p0(i64 4, ptr %5) #6
  store i32 0, ptr %5, align 4, !tbaa !14
  br label %7

7:                                                ; preds = %30, %1
  %8 = load i32, ptr %5, align 4, !tbaa !14
  %9 = icmp slt i32 %8, 8
  br i1 %9, label %11, label %10

10:                                               ; preds = %7
  store i32 2, ptr %6, align 4
  br label %33

11:                                               ; preds = %7
  %12 = load i32, ptr %5, align 4, !tbaa !14
  %13 = sext i32 %12 to i64
  %14 = getelementptr inbounds [8 x ptr], ptr @connTypes, i64 0, i64 %13
  %15 = load ptr, ptr %14, align 8, !tbaa !5
  store ptr %15, ptr %4, align 8, !tbaa !5
  %16 = load ptr, ptr %4, align 8, !tbaa !5
  %17 = icmp ne ptr %16, null
  br i1 %17, label %19, label %18

18:                                               ; preds = %11
  store i32 2, ptr %6, align 4
  br label %33

19:                                               ; preds = %11
  %20 = load ptr, ptr %3, align 8, !tbaa !12
  %21 = load ptr, ptr %4, align 8, !tbaa !5
  %22 = getelementptr inbounds nuw %struct.ConnectionType, ptr %21, i32 0, i32 0
  %23 = load ptr, ptr %22, align 8, !tbaa !10
  %24 = call ptr %23(ptr noundef null)
  %25 = call i32 @strcasecmp(ptr noundef %20, ptr noundef %24) #7
  %26 = icmp ne i32 %25, 0
  br i1 %26, label %29, label %27

27:                                               ; preds = %19
  %28 = load ptr, ptr %4, align 8, !tbaa !5
  store ptr %28, ptr %2, align 8
  store i32 1, ptr %6, align 4
  br label %33

29:                                               ; preds = %19
  br label %30

30:                                               ; preds = %29
  %31 = load i32, ptr %5, align 4, !tbaa !14
  %32 = add nsw i32 %31, 1
  store i32 %32, ptr %5, align 4, !tbaa !14
  br label %7, !llvm.loop !46

33:                                               ; preds = %27, %18, %10
  call void @llvm.lifetime.end.p0(i64 4, ptr %5) #6
  %34 = load i32, ptr %6, align 4
  switch i32 %34, label %44 [
    i32 2, label %35
  ]

35:                                               ; preds = %33
  br label %36

36:                                               ; preds = %35
  %37 = load i32, ptr getelementptr inbounds nuw (%struct.redisServer, ptr @server, i32 0, i32 159), align 8, !tbaa !16
  %38 = icmp slt i32 3, %37
  br i1 %38, label %39, label %40

39:                                               ; preds = %36
  br label %43

40:                                               ; preds = %36
  %41 = load ptr, ptr %3, align 8, !tbaa !12
  call void (i32, ptr, ...) @_serverLog(i32 noundef 3, ptr noundef @.str.5, ptr noundef %41)
  br label %42

42:                                               ; preds = %40
  br label %43

43:                                               ; preds = %42, %39
  store ptr null, ptr %2, align 8
  store i32 1, ptr %6, align 4
  br label %44

44:                                               ; preds = %43, %33
  call void @llvm.lifetime.end.p0(i64 8, ptr %4) #6
  %45 = load ptr, ptr %2, align 8
  ret ptr %45
}