; Function Attrs: nounwind uwtable
define dso_local ptr @connectionByType(ptr noundef %0) local_unnamed_addr #0 {
  br label %3

2:                                                ; preds = %6
  %indvars.iv.next = add nuw nsw i64 %indvars.iv, 1
  %exitcond.not = icmp eq i64 %indvars.iv.next, 8
  br i1 %exitcond.not, label %10, label %3, !llvm.loop !45

3:                                                ; preds = %1, %2
  %indvars.iv = phi i64 [ 0, %1 ], [ %indvars.iv.next, %2 ]
  %4 = getelementptr inbounds nuw [8 x ptr], ptr @connTypes, i64 0, i64 %indvars.iv
  %5 = load ptr, ptr %4, align 8, !tbaa !10
  %.not = icmp eq ptr %5, null
  br i1 %.not, label %10, label %6

6:                                                ; preds = %3
  %7 = load ptr, ptr %5, align 8, !tbaa !5
  %8 = tail call ptr %7(ptr noundef null) #4
  %9 = tail call i32 @strcasecmp(ptr noundef %0, ptr noundef %8) #5
  %.not12 = icmp eq i32 %9, 0
  br i1 %.not12, label %.loopexit, label %2

10:                                               ; preds = %2, %3
  %11 = load i32, ptr getelementptr inbounds nuw (i8, ptr @server, i64 6288), align 8, !tbaa !12
  %12 = icmp sgt i32 %11, 3
  br i1 %12, label %.loopexit, label %13

13:                                               ; preds = %10
  tail call void (i32, ptr, ...) @_serverLog(i32 noundef 3, ptr noundef nonnull @.str.5, ptr noundef %0) #4
  br label %.loopexit

.loopexit:                                        ; preds = %6, %13, %10
  %.1 = phi ptr [ null, %10 ], [ null, %13 ], [ %5, %6 ]
  ret ptr %.1
}